target datalayout = "e-m:e-p270:32:32-p271:32:32-p272:64:64-i64:64-i128:128-f80:128-n8:16:32:64-S128"
target triple = "x86_64-pc-linux-gnu"

%struct._value_string_ext = type { ptr, i32, i32, ptr, ptr }
%struct.expert_field = type { i32, i32 }
%struct._pfcp_ie = type { ptr }
%struct.nstime_t = type { i64, i32 }
%struct._packet_info = type { ptr, ptr, i32, i32, %struct.nstime_t, %struct.nstime_t, %struct.nstime_t, i8, ptr, ptr, ptr, ptr, %struct._address, %struct._address, %struct._address, %struct._address, %struct._address, %struct._address, i32, ptr, i8, [3 x i8], %struct.anon, i32, i32, i32, i32, ptr, i8, ptr, ptr, i16, i16, i32, i32, i16, i32, i32, ptr, ptr, ptr, i8, i8, i16, i16, i16, i32, i16, i16, ptr, ptr, ptr, ptr, ptr, i32, i32 }
%struct._address = type { i32, i32, ptr, ptr }
%struct.anon = type { i8, [3 x i8] }
%struct._pfcp_sub_dis_t = type { i8, ptr }

@hf_pfcp2_ie = internal global i32 0, align 4
@pfcp_ie_type_ext = internal global %struct._value_string_ext { ptr @_try_val_to_str_ext_init, i32 0, i32 348, ptr @pfcp_ie_type, ptr @.str.2059 }, align 8
@hf_pfcp2_ie_len = internal global i32 0, align 4
@ett_pfcp_ie = internal global i32 0, align 4
@ett_pfcp_elem = hidden global [354 x i32] zeroinitializer, align 16
@ei_pfcp_ie_not_decoded_null = internal global %struct.expert_field zeroinitializer, align 4
@ei_pfcp_ie_not_decoded_too_large = internal global %struct.expert_field zeroinitializer, align 4
@pfcp_enterprise_ies_dissector_table = internal global ptr null, align 8
@.str.2639 = private unnamed_addr constant [8 x i8] c"Unknown\00", align 1
@.str.2640 = private unnamed_addr constant [6 x i8] c"%s : \00", align 1
@.str.2641 = private unnamed_addr constant [19 x i8] c"[IE to be removed]\00", align 1

; Function Attrs: null_pointer_is_valid sspstrong uwtable
define internal void @dissect_pfcp_ies_common(ptr noundef %0, ptr noundef %1, ptr noundef %2, i32 noundef %3, i16 noundef zeroext %4, i8 noundef zeroext %5, ptr noundef %6) #0 {
  %8 = alloca ptr, align 8
  %9 = alloca ptr, align 8
  %10 = alloca ptr, align 8
  %11 = alloca i32, align 4
  %12 = alloca i16, align 2
  %13 = alloca i8, align 1
  %14 = alloca ptr, align 8
  %15 = alloca ptr, align 8
  %16 = alloca ptr, align 8
  %17 = alloca ptr, align 8
  %18 = alloca i16, align 2
  %19 = alloca i16, align 2
  %20 = alloca i16, align 2
  %21 = alloca ptr, align 8
  %22 = alloca i32, align 4
  store ptr %0, ptr %8, align 8
  store ptr %1, ptr %9, align 8
  store ptr %2, ptr %10, align 8
  store i32 %3, ptr %11, align 4
  store i16 %4, ptr %12, align 2
  store i8 %5, ptr %13, align 1
  store ptr %6, ptr %14, align 8
  call void @llvm.lifetime.start.p0(i64 8, ptr %15) #13
  call void @llvm.lifetime.start.p0(i64 8, ptr %16) #13
  call void @llvm.lifetime.start.p0(i64 8, ptr %17) #13
  call void @llvm.lifetime.start.p0(i64 2, ptr %18) #13
  call void @llvm.lifetime.start.p0(i64 2, ptr %19) #13
  call void @llvm.lifetime.start.p0(i64 2, ptr %20) #13
  call void @llvm.lifetime.start.p0(i64 8, ptr %21) #13
  %23 = load ptr, ptr %9, align 8
  %24 = getelementptr inbounds nuw %struct._packet_info, ptr %23, i32 0, i32 51
  %25 = load ptr, ptr %24, align 8
  %26 = call noalias ptr @wmem_alloc0(ptr noundef %25, i64 noundef 16) #14
  store ptr %26, ptr %21, align 8
  %27 = load i8, ptr %13, align 1
  %28 = load ptr, ptr %21, align 8
  %29 = getelementptr inbounds nuw %struct._pfcp_sub_dis_t, ptr %28, i32 0, i32 0
  store i8 %27, ptr %29, align 8
  %30 = load ptr, ptr %14, align 8
  %31 = load ptr, ptr %21, align 8
  %32 = getelementptr inbounds nuw %struct._pfcp_sub_dis_t, ptr %31, i32 0, i32 1
  store ptr %30, ptr %32, align 8
  br label %33

33:                                               ; preds = %176, %7
  %34 = load i32, ptr %11, align 4
  %35 = load i16, ptr %12, align 2
  %36 = zext i16 %35 to i32
  %37 = icmp slt i32 %34, %36
  br i1 %37, label %38, label %177

38:                                               ; preds = %33
  %39 = load ptr, ptr %8, align 8
  %40 = load i32, ptr %11, align 4
  %41 = call zeroext i16 @tvb_get_ntohs(ptr noundef %39, i32 noundef %40)
  store i16 %41, ptr %18, align 2
  %42 = load ptr, ptr %8, align 8
  %43 = load i32, ptr %11, align 4
  %44 = add i32 %43, 2
  %45 = call zeroext i16 @tvb_get_ntohs(ptr noundef %42, i32 noundef %44)
  store i16 %45, ptr %19, align 2
  %46 = load i16, ptr %18, align 2
  %47 = zext i16 %46 to i32
  %48 = and i32 %47, 32768
  %49 = icmp eq i32 %48, 32768
  br i1 %49, label %50, label %82

50:                                               ; preds = %38
  %51 = load ptr, ptr %8, align 8
  %52 = load i32, ptr %11, align 4
  %53 = add i32 %52, 4
  %54 = call zeroext i16 @tvb_get_ntohs(ptr noundef %51, i32 noundef %53)
  store i16 %54, ptr %20, align 2
  %55 = load ptr, ptr %8, align 8
  %56 = load i32, ptr %11, align 4
  %57 = load i16, ptr %19, align 2
  %58 = zext i16 %57 to i32
  %59 = add i32 %58, 4
  %60 = call ptr @tvb_new_subset_length(ptr noundef %55, i32 noundef %56, i32 noundef %59)
  store ptr %60, ptr %17, align 8
  %61 = load ptr, ptr @pfcp_enterprise_ies_dissector_table, align 8
  %62 = load i16, ptr %20, align 2
  %63 = zext i16 %62 to i32
  %64 = load ptr, ptr %17, align 8
  %65 = load ptr, ptr %9, align 8
  %66 = load ptr, ptr %10, align 8
  %67 = load ptr, ptr %21, align 8
  %68 = call i32 @dissector_try_uint_with_data(ptr noundef %61, i32 noundef %63, ptr noundef %64, ptr noundef %65, ptr noundef %66, i1 noundef zeroext false, ptr noundef %67)
  %69 = icmp ne i32 %68, 0
  br i1 %69, label %76, label %70

70:                                               ; preds = %50
  %71 = load ptr, ptr %17, align 8
  %72 = load ptr, ptr %9, align 8
  %73 = load ptr, ptr %10, align 8
  %74 = load ptr, ptr %21, align 8
  %75 = call i32 @dissect_pfcp_generic_enterprise_ie(ptr noundef %71, ptr noundef %72, ptr noundef %73, ptr noundef %74, ptr noundef null)
  br label %76

76:                                               ; preds = %70, %50
  %77 = load i16, ptr %19, align 2
  %78 = zext i16 %77 to i32
  %79 = add i32 4, %78
  %80 = load i32, ptr %11, align 4
  %81 = add i32 %80, %79
  store i32 %81, ptr %11, align 4
  br label %176

82:                                               ; preds = %38
  call void @llvm.lifetime.start.p0(i64 4, ptr %22) #13
  %83 = load i16, ptr %18, align 2
  %84 = zext i16 %83 to i64
  %85 = icmp ult i64 %84, 354
  br i1 %85, label %86, label %91

86:                                               ; preds = %82
  %87 = load i16, ptr %18, align 2
  %88 = zext i16 %87 to i64
  %89 = getelementptr [354 x i32], ptr @ett_pfcp_elem, i64 0, i64 %88
  %90 = load i32, ptr %89, align 4
  store i32 %90, ptr %22, align 4
  br label %93

91:                                               ; preds = %82
  %92 = load i32, ptr @ett_pfcp_ie, align 4
  store i32 %92, ptr %22, align 4
  br label %93

93:                                               ; preds = %91, %86
  %94 = load ptr, ptr %10, align 8
  %95 = load ptr, ptr %8, align 8
  %96 = load i32, ptr %11, align 4
  %97 = load i16, ptr %19, align 2
  %98 = zext i16 %97 to i32
  %99 = add i32 4, %98
  %100 = load i32, ptr %22, align 4
  %101 = load i16, ptr %18, align 2
  %102 = zext i16 %101 to i32
  %103 = call ptr @val_to_str_ext_const(i32 noundef %102, ptr noundef @pfcp_ie_type_ext, ptr noundef @.str.2639)
  %104 = call ptr (ptr, ptr, i32, i32, i32, ptr, ptr, ...) @proto_tree_add_subtree_format(ptr noundef %94, ptr noundef %95, i32 noundef %96, i32 noundef %99, i32 noundef %100, ptr noundef %16, ptr noundef @.str.2640, ptr noundef %103)
  store ptr %104, ptr %15, align 8
  %105 = load ptr, ptr %15, align 8
  %106 = load i32, ptr @hf_pfcp2_ie, align 4
  %107 = load ptr, ptr %8, align 8
  %108 = load i32, ptr %11, align 4
  %109 = call ptr @proto_tree_add_item(ptr noundef %105, i32 noundef %106, ptr noundef %107, i32 noundef %108, i32 noundef 2, i32 noundef 0)
  %110 = load i32, ptr %11, align 4
  %111 = add i32 %110, 2
  store i32 %111, ptr %11, align 4
  %112 = load ptr, ptr %15, align 8
  %113 = load i32, ptr @hf_pfcp2_ie_len, align 4
  %114 = load ptr, ptr %8, align 8
  %115 = load i32, ptr %11, align 4
  %116 = call ptr @proto_tree_add_item(ptr noundef %112, i32 noundef %113, ptr noundef %114, i32 noundef %115, i32 noundef 2, i32 noundef 0)
  %117 = load i32, ptr %11, align 4
  %118 = add i32 %117, 2
  store i32 %118, ptr %11, align 4
  %119 = load i16, ptr %19, align 2
  %120 = zext i16 %119 to i32
  %121 = icmp eq i32 %120, 0
  br i1 %121, label %122, label %124

122:                                              ; preds = %93
  %123 = load ptr, ptr %16, align 8
  call void (ptr, ptr, ...) @proto_item_append_text(ptr noundef %123, ptr noundef @.str.2641)
  br label %171

124:                                              ; preds = %93
  %125 = load i16, ptr %18, align 2
  %126 = zext i16 %125 to i64
  %127 = icmp ult i64 %126, 354
  br i1 %127, label %128, label %162

128:                                              ; preds = %124
  %129 = load ptr, ptr %8, align 8
  %130 = load i32, ptr %11, align 4
  %131 = load i16, ptr %19, align 2
  %132 = zext i16 %131 to i32
  %133 = call ptr @tvb_new_subset_length(ptr noundef %129, i32 noundef %130, i32 noundef %132)
  store ptr %133, ptr %17, align 8
  %134 = load i16, ptr %18, align 2
  %135 = zext i16 %134 to i64
  %136 = getelementptr [355 x %struct._pfcp_ie], ptr @pfcp_ies, i64 0, i64 %135
  %137 = getelementptr inbounds nuw %struct._pfcp_ie, ptr %136, i32 0, i32 0
  %138 = load ptr, ptr %137, align 8
  %139 = icmp ne ptr %138, null
  br i1 %139, label %140, label %153

140:                                              ; preds = %128
  %141 = load i16, ptr %18, align 2
  %142 = zext i16 %141 to i64
  %143 = getelementptr [355 x %struct._pfcp_ie], ptr @pfcp_ies, i64 0, i64 %142
  %144 = getelementptr inbounds nuw %struct._pfcp_ie, ptr %143, i32 0, i32 0
  %145 = load ptr, ptr %144, align 8
  %146 = load ptr, ptr %17, align 8
  %147 = load ptr, ptr %9, align 8
  %148 = load ptr, ptr %15, align 8
  %149 = load ptr, ptr %16, align 8
  %150 = load i16, ptr %19, align 2
  %151 = load i8, ptr %13, align 1
  %152 = load ptr, ptr %14, align 8
  call void %145(ptr noundef %146, ptr noundef %147, ptr noundef %148, ptr noundef %149, i16 noundef zeroext %150, i8 noundef zeroext %151, ptr noundef %152)
  br label %161

153:                                              ; preds = %128
  %154 = load ptr, ptr %15, align 8
  %155 = load ptr, ptr %9, align 8
  %156 = load ptr, ptr %8, align 8
  %157 = load i32, ptr %11, align 4
  %158 = load i16, ptr %19, align 2
  %159 = zext i16 %158 to i32
  %160 = call ptr @proto_tree_add_expert(ptr noundef %154, ptr noundef %155, ptr noundef @ei_pfcp_ie_not_decoded_null, ptr noundef %156, i32 noundef %157, i32 noundef %159)
  br label %161

161:                                              ; preds = %153, %140
  br label %170

162:                                              ; preds = %124
  %163 = load ptr, ptr %15, align 8
  %164 = load ptr, ptr %9, align 8
  %165 = load ptr, ptr %8, align 8
  %166 = load i32, ptr %11, align 4
  %167 = load i16, ptr %19, align 2
  %168 = zext i16 %167 to i32
  %169 = call ptr @proto_tree_add_expert(ptr noundef %163, ptr noundef %164, ptr noundef @ei_pfcp_ie_not_decoded_too_large, ptr noundef %165, i32 noundef %166, i32 noundef %168)
  br label %170

170:                                              ; preds = %162, %161
  br label %171

171:                                              ; preds = %170, %122
  %172 = load i16, ptr %19, align 2
  %173 = zext i16 %172 to i32
  %174 = load i32, ptr %11, align 4
  %175 = add i32 %174, %173
  store i32 %175, ptr %11, align 4
  call void @llvm.lifetime.end.p0(i64 4, ptr %22) #13
  br label %176

176:                                              ; preds = %171, %76
  br label %33, !llvm.loop !13

177:                                              ; preds = %33
  call void @llvm.lifetime.end.p0(i64 8, ptr %21) #13
  call void @llvm.lifetime.end.p0(i64 2, ptr %20) #13
  call void @llvm.lifetime.end.p0(i64 2, ptr %19) #13
  call void @llvm.lifetime.end.p0(i64 2, ptr %18) #13
  call void @llvm.lifetime.end.p0(i64 8, ptr %17) #13
  call void @llvm.lifetime.end.p0(i64 8, ptr %16) #13
  call void @llvm.lifetime.end.p0(i64 8, ptr %15) #13
  ret void
}