; Function Attrs: null_pointer_is_valid sspstrong uwtable
define internal fastcc void @dissect_pfcp_ies_common(ptr noundef %0, ptr noundef %1, ptr noundef %2, i32 noundef range(i32 0, 17) %3, i16 noundef zeroext %4, i8 noundef zeroext %5, ptr noundef %6) unnamed_addr #0 {
  %8 = alloca ptr, align 8
  call void @llvm.lifetime.start.p0(i64 8, ptr nonnull %8) #15
  %9 = getelementptr inbounds nuw i8, ptr %1, i64 408
  %10 = load ptr, ptr %9, align 8
  %11 = tail call noalias dereferenceable_or_null(16) ptr @wmem_alloc0(ptr noundef %10, i64 noundef 16) #16
  store i8 %5, ptr %11, align 8
  %12 = getelementptr inbounds nuw i8, ptr %11, i64 8
  store ptr %6, ptr %12, align 8
  %13 = zext i16 %4 to i32
  %14 = icmp samesign ult i32 %3, %13
  br i1 %14, label %.lr.ph, label %._crit_edge

.lr.ph:                                           ; preds = %7, %61
  %.06875 = phi i32 [ %.1, %61 ], [ %3, %7 ]
  %15 = call zeroext i16 @tvb_get_ntohs(ptr noundef %0, i32 noundef %.06875)
  %16 = add nuw nsw i32 %.06875, 2
  %17 = call zeroext i16 @tvb_get_ntohs(ptr noundef %0, i32 noundef %16)
  %.not = icmp sgt i16 %15, -1
  br i1 %.not, label %31, label %18

18:                                               ; preds = %.lr.ph
  %19 = add nuw nsw i32 %.06875, 4
  %20 = call zeroext i16 @tvb_get_ntohs(ptr noundef %0, i32 noundef %19)
  %21 = zext i16 %17 to i32
  %22 = add nuw nsw i32 %21, 4
  %23 = call ptr @tvb_new_subset_length(ptr noundef %0, i32 noundef %.06875, i32 noundef %22)
  %24 = load ptr, ptr @pfcp_enterprise_ies_dissector_table, align 8
  %25 = zext i16 %20 to i32
  %26 = call i32 @dissector_try_uint_with_data(ptr noundef %24, i32 noundef %25, ptr noundef %23, ptr noundef %1, ptr noundef %2, i1 noundef zeroext false, ptr noundef %11)
  %.not74 = icmp eq i32 %26, 0
  br i1 %.not74, label %27, label %29

27:                                               ; preds = %18
  %28 = call i32 @dissect_pfcp_generic_enterprise_ie(ptr noundef %23, ptr noundef %1, ptr noundef %2, ptr noundef %11, ptr noundef null)
  br label %29

29:                                               ; preds = %27, %18
  %30 = add nuw nsw i32 %22, %.06875
  br label %61

31:                                               ; preds = %.lr.ph
  %32 = zext nneg i16 %15 to i32
  %33 = zext nneg i16 %15 to i64
  %34 = icmp samesign ult i16 %15, 354
  %35 = getelementptr [354 x i32], ptr @ett_pfcp_elem, i64 0, i64 %33
  %.0.in = select i1 %34, ptr %35, ptr @ett_pfcp_ie
  %.0 = load i32, ptr %.0.in, align 4
  %36 = zext i16 %17 to i32
  %37 = add nuw nsw i32 %36, 4
  %38 = call ptr @val_to_str_ext_const(i32 noundef %32, ptr noundef nonnull @pfcp_ie_type_ext, ptr noundef nonnull @.str.2639)
  %39 = call ptr (ptr, ptr, i32, i32, i32, ptr, ptr, ...) @proto_tree_add_subtree_format(ptr noundef %2, ptr noundef %0, i32 noundef %.06875, i32 noundef %37, i32 noundef %.0, ptr noundef nonnull %8, ptr noundef nonnull @.str.2640, ptr noundef %38)
  %40 = load i32, ptr @hf_pfcp2_ie, align 4
  %41 = call ptr @proto_tree_add_item(ptr noundef %39, i32 noundef %40, ptr noundef %0, i32 noundef %.06875, i32 noundef 2, i32 noundef 0)
  %42 = load i32, ptr @hf_pfcp2_ie_len, align 4
  %43 = call ptr @proto_tree_add_item(ptr noundef %39, i32 noundef %42, ptr noundef %0, i32 noundef %16, i32 noundef 2, i32 noundef 0)
  %44 = add nuw nsw i32 %.06875, 4
  %45 = icmp eq i16 %17, 0
  br i1 %45, label %46, label %48

46:                                               ; preds = %31
  %47 = load ptr, ptr %8, align 8
  call void (ptr, ptr, ...) @proto_item_append_text(ptr noundef %47, ptr noundef nonnull @.str.2641)
  br label %59

48:                                               ; preds = %31
  br i1 %34, label %49, label %57

49:                                               ; preds = %48
  %50 = call ptr @tvb_new_subset_length(ptr noundef %0, i32 noundef %44, i32 noundef %36)
  %51 = getelementptr [355 x %struct._pfcp_ie], ptr @pfcp_ies, i64 0, i64 %33
  %52 = load ptr, ptr %51, align 8
  %.not73 = icmp eq ptr %52, null
  br i1 %.not73, label %55, label %53

53:                                               ; preds = %49
  %54 = load ptr, ptr %8, align 8
  call void %52(ptr noundef %50, ptr noundef %1, ptr noundef %39, ptr noundef %54, i16 noundef zeroext %17, i8 noundef zeroext %5, ptr noundef %6)
  br label %59

55:                                               ; preds = %49
  %56 = call ptr @proto_tree_add_expert(ptr noundef %39, ptr noundef %1, ptr noundef nonnull @ei_pfcp_ie_not_decoded_null, ptr noundef %0, i32 noundef %44, i32 noundef %36)
  br label %59

57:                                               ; preds = %48
  %58 = call ptr @proto_tree_add_expert(ptr noundef %39, ptr noundef %1, ptr noundef nonnull @ei_pfcp_ie_not_decoded_too_large, ptr noundef %0, i32 noundef %44, i32 noundef %36)
  br label %59

59:                                               ; preds = %57, %55, %53, %46
  %60 = add nuw nsw i32 %44, %36
  br label %61

61:                                               ; preds = %59, %29
  %.1 = phi i32 [ %30, %29 ], [ %60, %59 ]
  %62 = icmp slt i32 %.1, %13
  br i1 %62, label %.lr.ph, label %._crit_edge, !llvm.loop !16

._crit_edge:                                      ; preds = %61, %7
  call void @llvm.lifetime.end.p0(i64 8, ptr nonnull %8) #15
  ret void
}